target datalayout = "e-m:e-p270:32:32-p271:32:32-p272:64:64-i64:64-i128:128-f80:128-n8:16:32:64-S128"
target triple = "x86_64-pc-linux-gnu"

%struct._XSettingsClient = type { ptr, i32, ptr, ptr, ptr, ptr, ptr, i64, i64, i64, i64, ptr }
%struct.anon.0 = type { ptr, ptr, i32, i32, i32, i32, ptr, i64, i64, i64, i32, ptr, i32, i32, i32, i32, i32, ptr, i32, i32, ptr, ptr, i32, i64, i64, ptr, ptr, ptr, ptr, i32, ptr, ptr, ptr, i32, i32, ptr, i64, i64, i32, i32, ptr, ptr, i32, ptr }
%struct.Screen = type { ptr, ptr, i64, i32, i32, i32, i32, i32, ptr, i32, ptr, ptr, i64, i64, i64, i32, i32, i32, i32, i64 }
%struct.XAnyEvent = type { i32, i64, i32, ptr, i64 }
%struct.XClientMessageEvent = type { i32, i64, i32, ptr, i64, i64, i32, %union.anon }
%union.anon = type { [5 x i64] }

; Function Attrs: nounwind uwtable
define hidden i32 @xsettings_client_process_event(ptr noundef %0, ptr noundef %1) #0 {
  %3 = alloca i32, align 4
  %4 = alloca ptr, align 8
  %5 = alloca ptr, align 8
  store ptr %0, ptr %4, align 8
  store ptr %1, ptr %5, align 8
  %6 = load ptr, ptr %5, align 8
  %7 = getelementptr inbounds nuw %struct.XAnyEvent, ptr %6, i32 0, i32 4
  %8 = load i64, ptr %7, align 8
  %9 = load ptr, ptr %4, align 8
  %10 = getelementptr inbounds nuw %struct._XSettingsClient, ptr %9, i32 0, i32 0
  %11 = load ptr, ptr %10, align 8
  %12 = getelementptr inbounds nuw %struct.anon.0, ptr %11, i32 0, i32 35
  %13 = load ptr, ptr %12, align 8
  %14 = load ptr, ptr %4, align 8
  %15 = getelementptr inbounds nuw %struct._XSettingsClient, ptr %14, i32 0, i32 1
  %16 = load i32, ptr %15, align 8
  %17 = sext i32 %16 to i64
  %18 = getelementptr inbounds %struct.Screen, ptr %13, i64 %17
  %19 = getelementptr inbounds nuw %struct.Screen, ptr %18, i32 0, i32 2
  %20 = load i64, ptr %19, align 8
  %21 = icmp eq i64 %8, %20
  br i1 %21, label %22, label %47

22:                                               ; preds = %2
  %23 = load ptr, ptr %5, align 8
  %24 = getelementptr inbounds nuw %struct.XAnyEvent, ptr %23, i32 0, i32 0
  %25 = load i32, ptr %24, align 8
  %26 = icmp eq i32 %25, 33
  br i1 %26, label %27, label %46

27:                                               ; preds = %22
  %28 = load ptr, ptr %5, align 8
  %29 = getelementptr inbounds nuw %struct.XClientMessageEvent, ptr %28, i32 0, i32 5
  %30 = load i64, ptr %29, align 8
  %31 = load ptr, ptr %4, align 8
  %32 = getelementptr inbounds nuw %struct._XSettingsClient, ptr %31, i32 0, i32 8
  %33 = load i64, ptr %32, align 8
  %34 = icmp eq i64 %30, %33
  br i1 %34, label %35, label %46

35:                                               ; preds = %27
  %36 = load ptr, ptr %5, align 8
  %37 = getelementptr inbounds nuw %struct.XClientMessageEvent, ptr %36, i32 0, i32 7
  %38 = getelementptr inbounds [5 x i64], ptr %37, i64 0, i64 1
  %39 = load i64, ptr %38, align 8
  %40 = load ptr, ptr %4, align 8
  %41 = getelementptr inbounds nuw %struct._XSettingsClient, ptr %40, i32 0, i32 9
  %42 = load i64, ptr %41, align 8
  %43 = icmp eq i64 %39, %42
  br i1 %43, label %44, label %46

44:                                               ; preds = %35
  %45 = load ptr, ptr %4, align 8
  call void @check_manager_window(ptr noundef %45)
  store i32 1, ptr %3, align 4
  br label %73

46:                                               ; preds = %35, %27, %22
  br label %72

47:                                               ; preds = %2
  %48 = load ptr, ptr %5, align 8
  %49 = getelementptr inbounds nuw %struct.XAnyEvent, ptr %48, i32 0, i32 4
  %50 = load i64, ptr %49, align 8
  %51 = load ptr, ptr %4, align 8
  %52 = getelementptr inbounds nuw %struct._XSettingsClient, ptr %51, i32 0, i32 7
  %53 = load i64, ptr %52, align 8
  %54 = icmp eq i64 %50, %53
  br i1 %54, label %55, label %71

55:                                               ; preds = %47
  %56 = load ptr, ptr %5, align 8
  %57 = getelementptr inbounds nuw %struct.XAnyEvent, ptr %56, i32 0, i32 0
  %58 = load i32, ptr %57, align 8
  %59 = icmp eq i32 %58, 17
  br i1 %59, label %60, label %62

60:                                               ; preds = %55
  %61 = load ptr, ptr %4, align 8
  call void @check_manager_window(ptr noundef %61)
  store i32 0, ptr %3, align 4
  br label %73

62:                                               ; preds = %55
  %63 = load ptr, ptr %5, align 8
  %64 = getelementptr inbounds nuw %struct.XAnyEvent, ptr %63, i32 0, i32 0
  %65 = load i32, ptr %64, align 8
  %66 = icmp eq i32 %65, 28
  br i1 %66, label %67, label %69

67:                                               ; preds = %62
  %68 = load ptr, ptr %4, align 8
  call void @read_settings(ptr noundef %68)
  store i32 1, ptr %3, align 4
  br label %73

69:                                               ; preds = %62
  br label %70

70:                                               ; preds = %69
  br label %71

71:                                               ; preds = %70, %47
  br label %72

72:                                               ; preds = %71, %46
  store i32 0, ptr %3, align 4
  br label %73

73:                                               ; preds = %72, %67, %60, %44
  %74 = load i32, ptr %3, align 4
  ret i32 %74
}