; Function Attrs: nounwind uwtable
define hidden range(i32 0, 2) i32 @xsettings_client_process_event(ptr noundef captures(none) %0, ptr noundef readonly captures(none) %1) local_unnamed_addr #0 {
  %3 = getelementptr inbounds nuw i8, ptr %1, i64 32
  %4 = load i64, ptr %3, align 8
  %5 = load ptr, ptr %0, align 8
  %6 = getelementptr inbounds nuw i8, ptr %5, i64 232
  %7 = load ptr, ptr %6, align 8
  %8 = getelementptr inbounds nuw i8, ptr %0, i64 8
  %9 = load i32, ptr %8, align 8
  %10 = sext i32 %9 to i64
  %11 = getelementptr inbounds %struct.Screen, ptr %7, i64 %10, i32 2
  %12 = load i64, ptr %11, align 8
  %13 = icmp eq i64 %4, %12
  br i1 %13, label %14, label %30

14:                                               ; preds = %2
  %15 = load i32, ptr %1, align 8
  %16 = icmp eq i32 %15, 33
  br i1 %16, label %17, label %38

17:                                               ; preds = %14
  %18 = getelementptr inbounds nuw i8, ptr %1, i64 40
  %19 = load i64, ptr %18, align 8
  %20 = getelementptr inbounds nuw i8, ptr %0, i64 64
  %21 = load i64, ptr %20, align 8
  %22 = icmp eq i64 %19, %21
  br i1 %22, label %23, label %38

23:                                               ; preds = %17
  %24 = getelementptr inbounds nuw i8, ptr %1, i64 64
  %25 = load i64, ptr %24, align 8
  %26 = getelementptr inbounds nuw i8, ptr %0, i64 72
  %27 = load i64, ptr %26, align 8
  %28 = icmp eq i64 %25, %27
  br i1 %28, label %29, label %38

29:                                               ; preds = %23
  tail call fastcc void @check_manager_window(ptr noundef nonnull %0)
  br label %38

30:                                               ; preds = %2
  %31 = getelementptr inbounds nuw i8, ptr %0, i64 56
  %32 = load i64, ptr %31, align 8
  %33 = icmp eq i64 %4, %32
  br i1 %33, label %34, label %38

34:                                               ; preds = %30
  %35 = load i32, ptr %1, align 8
  switch i32 %35, label %38 [
    i32 17, label %36
    i32 28, label %37
  ]

36:                                               ; preds = %34
  tail call fastcc void @check_manager_window(ptr noundef nonnull %0)
  br label %38

37:                                               ; preds = %34
  tail call fastcc void @read_settings(ptr noundef nonnull %0)
  br label %38

38:                                               ; preds = %23, %17, %14, %30, %34, %37, %36, %29
  %.0 = phi i32 [ 1, %29 ], [ 0, %36 ], [ 1, %37 ], [ 0, %34 ], [ 0, %30 ], [ 0, %14 ], [ 0, %17 ], [ 0, %23 ]
  ret i32 %.0
}